target datalayout = "e-m:e-p270:32:32-p271:32:32-p272:64:64-i64:64-i128:128-f80:128-n8:16:32:64-S128"
target triple = "x86_64-pc-linux-gnu"

%"struct.std::_Rb_tree_header" = type { %"struct.std::_Rb_tree_node_base", i64 }
%"struct.std::_Rb_tree_node_base" = type { i32, ptr, ptr, ptr }
%"struct.open_spiel::coin_game::Setup" = type <{ %"class.std::set", %"class.std::set", i32, i32, i32, [4 x i8] }>
%"class.std::set" = type { %"class.std::_Rb_tree.6" }
%"class.std::_Rb_tree.6" = type { %"struct.std::_Rb_tree<int, int, std::_Identity<int>, std::less<int>>::_Rb_tree_impl" }
%"struct.std::_Rb_tree<int, int, std::_Identity<int>, std::less<int>>::_Rb_tree_impl" = type { [8 x i8], %"struct.std::_Rb_tree_header" }

; Function Attrs: mustprogress uwtable
define void @_ZN10open_spiel9coin_game5SetupC2Eiii(ptr noundef nonnull align 8 dereferenceable(108) %0, i32 noundef %1, i32 noundef %2, i32 noundef %3) unnamed_addr #4 align 2 personality ptr @__gxx_personality_v0 {
  %5 = alloca ptr, align 8
  %6 = alloca i32, align 4
  %7 = alloca i32, align 4
  %8 = alloca i32, align 4
  %9 = alloca ptr, align 8
  %10 = alloca i32, align 4
  store ptr %0, ptr %5, align 8
  store i32 %1, ptr %6, align 4
  store i32 %2, ptr %7, align 4
  store i32 %3, ptr %8, align 4
  %11 = load ptr, ptr %5, align 8
  %12 = getelementptr inbounds nuw %"struct.open_spiel::coin_game::Setup", ptr %11, i32 0, i32 0
  %13 = load i32, ptr %8, align 4
  call void @_ZN10open_spiel9coin_game12_GLOBAL__N_110RangeAsSetEi(ptr dead_on_unwind writable sret(%"class.std::set") align 8 %12, i32 noundef %13)
  %14 = getelementptr inbounds nuw %"struct.open_spiel::coin_game::Setup", ptr %11, i32 0, i32 1
  %15 = load i32, ptr %6, align 4
  %16 = load i32, ptr %7, align 4
  %17 = mul nsw i32 %15, %16
  invoke void @_ZN10open_spiel9coin_game12_GLOBAL__N_110RangeAsSetEi(ptr dead_on_unwind writable sret(%"class.std::set") align 8 %14, i32 noundef %17)
          to label %18 unwind label %22

18:                                               ; preds = %4
  %19 = getelementptr inbounds nuw %"struct.open_spiel::coin_game::Setup", ptr %11, i32 0, i32 2
  store i32 0, ptr %19, align 8
  %20 = getelementptr inbounds nuw %"struct.open_spiel::coin_game::Setup", ptr %11, i32 0, i32 3
  store i32 0, ptr %20, align 4
  %21 = getelementptr inbounds nuw %"struct.open_spiel::coin_game::Setup", ptr %11, i32 0, i32 4
  store i32 0, ptr %21, align 8
  ret void

22:                                               ; preds = %4
  %23 = landingpad { ptr, i32 }
          cleanup
  %24 = extractvalue { ptr, i32 } %23, 0
  store ptr %24, ptr %9, align 8
  %25 = extractvalue { ptr, i32 } %23, 1
  store i32 %25, ptr %10, align 4
  call void @_ZNSt3setIiSt4lessIiESaIiEED2Ev(ptr noundef nonnull align 8 dereferenceable(48) %12) #3
  br label %26

26:                                               ; preds = %22
  %27 = load ptr, ptr %9, align 8
  %28 = load i32, ptr %10, align 4
  %29 = insertvalue { ptr, i32 } poison, ptr %27, 0
  %30 = insertvalue { ptr, i32 } %29, i32 %28, 1
  resume { ptr, i32 } %30
}