; Function Attrs: mustprogress uwtable
define void @_ZN10open_spiel9coin_game5SetupC2Eiii(ptr noundef nonnull align 8 dereferenceable(108) %0, i32 noundef %1, i32 noundef %2, i32 noundef %3) unnamed_addr #3 align 2 personality ptr @__gxx_personality_v0 {
  tail call fastcc void @_ZN10open_spiel9coin_game12_GLOBAL__N_110RangeAsSetEi(ptr dead_on_unwind noalias nonnull writable align 8 %0, i32 noundef %3)
  %5 = getelementptr inbounds nuw i8, ptr %0, i64 48
  %6 = mul nsw i32 %2, %1
  invoke fastcc void @_ZN10open_spiel9coin_game12_GLOBAL__N_110RangeAsSetEi(ptr dead_on_unwind noalias nonnull writable align 8 %5, i32 noundef %6)
          to label %7 unwind label %11

7:                                                ; preds = %4
  %8 = getelementptr inbounds nuw i8, ptr %0, i64 96
  store i32 0, ptr %8, align 8
  %9 = getelementptr inbounds nuw i8, ptr %0, i64 100
  store i32 0, ptr %9, align 4
  %10 = getelementptr inbounds nuw i8, ptr %0, i64 104
  store i32 0, ptr %10, align 8
  ret void

11:                                               ; preds = %4
  %12 = landingpad { ptr, i32 }
          cleanup
  tail call void @_ZNSt3setIiSt4lessIiESaIiEED2Ev(ptr noundef nonnull align 8 dereferenceable(48) %0) #26
  resume { ptr, i32 } %12
}